target datalayout = "e-m:e-p270:32:32-p271:32:32-p272:64:64-i64:64-i128:128-f80:128-n8:16:32:64-S128"
target triple = "x86_64-pc-linux-gnu"

%struct.nomem_handler = type { ptr, ptr }

@mem_once = internal global i32 0, align 4
@nomem_handler_key = internal global i32 0, align 4
@stderr = external global ptr, align 8
@.str = private unnamed_addr constant [35 x i8] c"jq: error: cannot allocate memory\0A\00", align 1
@.str.1 = private unnamed_addr constant [45 x i8] c"jq: error: cannot create thread specific key\00", align 1
@.str.2 = private unnamed_addr constant [38 x i8] c"jq: error: cannot set an exit handler\00", align 1
@.str.3 = private unnamed_addr constant [43 x i8] c"jq: error: cannot set thread specific data\00", align 1

; Function Attrs: nounwind uwtable
define dso_local void @jv_nomem_handler(ptr noundef %0, ptr noundef %1) #0 {
  %3 = alloca ptr, align 8
  %4 = alloca ptr, align 8
  %5 = alloca ptr, align 8
  store ptr %0, ptr %3, align 8, !tbaa !4
  store ptr %1, ptr %4, align 8, !tbaa !4
  %6 = call i32 @pthread_once(ptr noundef @mem_once, ptr noundef @tsd_init)
  call void @tsd_init_nomem_handler()
  call void @llvm.lifetime.start.p0(i64 8, ptr %5) #8
  %7 = load i32, ptr @nomem_handler_key, align 4, !tbaa !8
  %8 = call ptr @pthread_getspecific(i32 noundef %7) #8
  store ptr %8, ptr %5, align 8, !tbaa !10
  %9 = load ptr, ptr %5, align 8, !tbaa !10
  %10 = icmp eq ptr %9, null
  br i1 %10, label %11, label %16

11:                                               ; preds = %2
  %12 = load ptr, ptr %3, align 8, !tbaa !4
  %13 = load ptr, ptr %4, align 8, !tbaa !4
  call void %12(ptr noundef %13)
  %14 = load ptr, ptr @stderr, align 8, !tbaa !12
  %15 = call i32 (ptr, ptr, ...) @fprintf(ptr noundef %14, ptr noundef @.str) #8
  call void @abort() #9
  unreachable

16:                                               ; preds = %2
  %17 = load ptr, ptr %3, align 8, !tbaa !4
  %18 = load ptr, ptr %5, align 8, !tbaa !10
  %19 = getelementptr inbounds nuw %struct.nomem_handler, ptr %18, i32 0, i32 0
  store ptr %17, ptr %19, align 8, !tbaa !14
  %20 = load ptr, ptr %4, align 8, !tbaa !4
  %21 = load ptr, ptr %5, align 8, !tbaa !10
  %22 = getelementptr inbounds nuw %struct.nomem_handler, ptr %21, i32 0, i32 1
  store ptr %20, ptr %22, align 8, !tbaa !16
  call void @llvm.lifetime.end.p0(i64 8, ptr %5) #8
  ret void
}

declare i32 @pthread_once(ptr noundef, ptr noundef) #1

; Function Attrs: nounwind uwtable
define internal void @tsd_init() #0 {
  %1 = call i32 @pthread_key_create(ptr noundef @nomem_handler_key, ptr noundef @tsd_fini_thread) #8
  %2 = icmp ne i32 %1, 0
  br i1 %2, label %3, label %6

3:                                                ; preds = %0
  %4 = load ptr, ptr @stderr, align 8, !tbaa !12
  %5 = call i32 (ptr, ptr, ...) @fprintf(ptr noundef %4, ptr noundef @.str.1) #8
  call void @abort() #9
  unreachable

6:                                                ; preds = %0
  %7 = call i32 @atexit(ptr noundef @tsd_fini) #8
  %8 = icmp ne i32 %7, 0
  br i1 %8, label %9, label %12

9:                                                ; preds = %6
  %10 = load ptr, ptr @stderr, align 8, !tbaa !12
  %11 = call i32 (ptr, ptr, ...) @fprintf(ptr noundef %10, ptr noundef @.str.2) #8
  call void @abort() #9
  unreachable

12:                                               ; preds = %6
  ret void
}

; Function Attrs: nounwind uwtable
define internal void @tsd_init_nomem_handler() #0 {
  %1 = alloca ptr, align 8
  %2 = load i32, ptr @nomem_handler_key, align 4, !tbaa !8
  %3 = call ptr @pthread_getspecific(i32 noundef %2) #8
  %4 = icmp eq ptr %3, null
  br i1 %4, label %5, label %15

5:                                                ; preds = %0
  call void @llvm.lifetime.start.p0(i64 8, ptr %1) #8
  %6 = call noalias ptr @calloc(i64 noundef 1, i64 noundef 16) #10
  store ptr %6, ptr %1, align 8, !tbaa !10
  %7 = load i32, ptr @nomem_handler_key, align 4, !tbaa !8
  %8 = load ptr, ptr %1, align 8, !tbaa !10
  %9 = call i32 @pthread_setspecific(i32 noundef %7, ptr noundef %8) #8
  %10 = icmp ne i32 %9, 0
  br i1 %10, label %11, label %14

11:                                               ; preds = %5
  %12 = load ptr, ptr @stderr, align 8, !tbaa !12
  %13 = call i32 (ptr, ptr, ...) @fprintf(ptr noundef %12, ptr noundef @.str.3) #8
  call void @abort() #9
  unreachable

14:                                               ; preds = %5
  call void @llvm.lifetime.end.p0(i64 8, ptr %1) #8
  br label %15

15:                                               ; preds = %14, %0
  ret void
}

; Function Attrs: nocallback nofree nosync nounwind willreturn memory(argmem: readwrite)
declare void @llvm.lifetime.start.p0(i64 immarg, ptr captures(none)) #2

; Function Attrs: nounwind
declare ptr @pthread_getspecific(i32 noundef) #3

; Function Attrs: nounwind
declare i32 @fprintf(ptr noundef, ptr noundef, ...) #3

; Function Attrs: noreturn nounwind
declare void @abort() #4

; Function Attrs: nocallback nofree nosync nounwind willreturn memory(argmem: readwrite)
declare void @llvm.lifetime.end.p0(i64 immarg, ptr captures(none)) #2

; Function Attrs: nounwind uwtable
define dso_local ptr @jv_mem_alloc(i64 noundef %0) #0 {
  %2 = alloca i64, align 8
  %3 = alloca ptr, align 8
  store i64 %0, ptr %2, align 8, !tbaa !17
  call void @llvm.lifetime.start.p0(i64 8, ptr %3) #8
  %4 = load i64, ptr %2, align 8, !tbaa !17
  %5 = call noalias ptr @malloc(i64 noundef %4) #11
  store ptr %5, ptr %3, align 8, !tbaa !4
  %6 = load ptr, ptr %3, align 8, !tbaa !4
  %7 = icmp ne ptr %6, null
  br i1 %7, label %9, label %8

8:                                                ; preds = %1
  call void @memory_exhausted()
  br label %9

9:                                                ; preds = %8, %1
  %10 = load ptr, ptr %3, align 8, !tbaa !4
  call void @llvm.lifetime.end.p0(i64 8, ptr %3) #8
  ret ptr %10
}

; Function Attrs: nounwind allocsize(0)
declare noalias ptr @malloc(i64 noundef) #5

; Function Attrs: nounwind uwtable
define dso_local ptr @jv_mem_alloc_unguarded(i64 noundef %0) #0 {
  %2 = alloca i64, align 8
  store i64 %0, ptr %2, align 8, !tbaa !17
  %3 = load i64, ptr %2, align 8, !tbaa !17
  %4 = call noalias ptr @malloc(i64 noundef %3) #11
  ret ptr %4
}

; Function Attrs: nounwind uwtable
define dso_local ptr @jv_mem_calloc(i64 noundef %0, i64 noundef %1) #0 {
  %3 = alloca i64, align 8
  %4 = alloca i64, align 8
  %5 = alloca ptr, align 8
  store i64 %0, ptr %3, align 8, !tbaa !17
  store i64 %1, ptr %4, align 8, !tbaa !17
  call void @llvm.lifetime.start.p0(i64 8, ptr %5) #8
  %6 = load i64, ptr %3, align 8, !tbaa !17
  %7 = load i64, ptr %4, align 8, !tbaa !17
  %8 = call noalias ptr @calloc(i64 noundef %6, i64 noundef %7) #10
  store ptr %8, ptr %5, align 8, !tbaa !4
  %9 = load ptr, ptr %5, align 8, !tbaa !4
  %10 = icmp ne ptr %9, null
  br i1 %10, label %12, label %11

11:                                               ; preds = %2
  call void @memory_exhausted()
  br label %12

12:                                               ; preds = %11, %2
  %13 = load ptr, ptr %5, align 8, !tbaa !4
  call void @llvm.lifetime.end.p0(i64 8, ptr %5) #8
  ret ptr %13
}

; Function Attrs: nounwind allocsize(0,1)
declare noalias ptr @calloc(i64 noundef, i64 noundef) #6

; Function Attrs: nounwind uwtable
define dso_local ptr @jv_mem_calloc_unguarded(i64 noundef %0, i64 noundef %1) #0 {
  %3 = alloca i64, align 8
  %4 = alloca i64, align 8
  store i64 %0, ptr %3, align 8, !tbaa !17
  store i64 %1, ptr %4, align 8, !tbaa !17
  %5 = load i64, ptr %3, align 8, !tbaa !17
  %6 = load i64, ptr %4, align 8, !tbaa !17
  %7 = call noalias ptr @calloc(i64 noundef %5, i64 noundef %6) #10
  ret ptr %7
}

; Function Attrs: nounwind uwtable
define dso_local ptr @jv_mem_strdup(ptr noundef %0) #0 {
  %2 = alloca ptr, align 8
  %3 = alloca ptr, align 8
  store ptr %0, ptr %2, align 8, !tbaa !19
  call void @llvm.lifetime.start.p0(i64 8, ptr %3) #8
  %4 = load ptr, ptr %2, align 8, !tbaa !19
  %5 = call noalias ptr @strdup(ptr noundef %4) #8
  store ptr %5, ptr %3, align 8, !tbaa !19
  %6 = load ptr, ptr %3, align 8, !tbaa !19
  %7 = icmp ne ptr %6, null
  br i1 %7, label %9, label %8

8:                                                ; preds = %1
  call void @memory_exhausted()
  br label %9

9:                                                ; preds = %8, %1
  %10 = load ptr, ptr %3, align 8, !tbaa !19
  call void @llvm.lifetime.end.p0(i64 8, ptr %3) #8
  ret ptr %10
}

; Function Attrs: nounwind
declare noalias ptr @strdup(ptr noundef) #3

; Function Attrs: nounwind uwtable
define dso_local ptr @jv_mem_strdup_unguarded(ptr noundef %0) #0 {
  %2 = alloca ptr, align 8
  store ptr %0, ptr %2, align 8, !tbaa !19
  %3 = load ptr, ptr %2, align 8, !tbaa !19
  %4 = call noalias ptr @strdup(ptr noundef %3) #8
  ret ptr %4
}

; Function Attrs: nounwind uwtable
define dso_local void @jv_mem_free(ptr noundef %0) #0 {
  %2 = alloca ptr, align 8
  store ptr %0, ptr %2, align 8, !tbaa !4
  %3 = load ptr, ptr %2, align 8, !tbaa !4
  call void @free(ptr noundef %3) #8
  ret void
}

; Function Attrs: nounwind
declare void @free(ptr noundef) #3

; Function Attrs: nounwind uwtable
define dso_local ptr @jv_mem_realloc(ptr noundef %0, i64 noundef %1) #0 {
  %3 = alloca ptr, align 8
  %4 = alloca i64, align 8
  store ptr %0, ptr %3, align 8, !tbaa !4
  store i64 %1, ptr %4, align 8, !tbaa !17
  %5 = load ptr, ptr %3, align 8, !tbaa !4
  %6 = load i64, ptr %4, align 8, !tbaa !17
  %7 = call ptr @realloc(ptr noundef %5, i64 noundef %6) #12
  store ptr %7, ptr %3, align 8, !tbaa !4
  %8 = load ptr, ptr %3, align 8, !tbaa !4
  %9 = icmp ne ptr %8, null
  br i1 %9, label %11, label %10

10:                                               ; preds = %2
  call void @memory_exhausted()
  br label %11

11:                                               ; preds = %10, %2
  %12 = load ptr, ptr %3, align 8, !tbaa !4
  ret ptr %12
}

; Function Attrs: nounwind allocsize(1)
declare ptr @realloc(ptr noundef, i64 noundef) #7

; Function Attrs: nounwind
declare i32 @pthread_key_create(ptr noundef, ptr noundef) #3

; Function Attrs: nounwind uwtable
define internal void @tsd_fini_thread(ptr noundef %0) #0 {
  %2 = alloca ptr, align 8
  store ptr %0, ptr %2, align 8, !tbaa !4
  %3 = load ptr, ptr %2, align 8, !tbaa !4
  call void @free(ptr noundef %3) #8
  ret void
}

; Function Attrs: nounwind
declare i32 @atexit(ptr noundef) #3

; Function Attrs: nounwind uwtable
define internal void @tsd_fini() #0 {
  %1 = alloca ptr, align 8
  call void @llvm.lifetime.start.p0(i64 8, ptr %1) #8
  %2 = load i32, ptr @nomem_handler_key, align 4, !tbaa !8
  %3 = call ptr @pthread_getspecific(i32 noundef %2) #8
  store ptr %3, ptr %1, align 8, !tbaa !10
  %4 = load ptr, ptr %1, align 8, !tbaa !10
  %5 = icmp ne ptr %4, null
  br i1 %5, label %6, label %10

6:                                                ; preds = %0
  %7 = load i32, ptr @nomem_handler_key, align 4, !tbaa !8
  %8 = call i32 @pthread_setspecific(i32 noundef %7, ptr noundef null) #8
  %9 = load ptr, ptr %1, align 8, !tbaa !10
  call void @free(ptr noundef %9) #8
  br label %10

10:                                               ; preds = %6, %0
  call void @llvm.lifetime.end.p0(i64 8, ptr %1) #8
  ret void
}

; Function Attrs: nounwind
declare i32 @pthread_setspecific(i32 noundef, ptr noundef) #3

; Function Attrs: nounwind uwtable
define internal void @memory_exhausted() #0 {
  %1 = alloca ptr, align 8
  call void @llvm.lifetime.start.p0(i64 8, ptr %1) #8
  %2 = call i32 @pthread_once(ptr noundef @mem_once, ptr noundef @tsd_init)
  call void @tsd_init_nomem_handler()
  %3 = load i32, ptr @nomem_handler_key, align 4, !tbaa !8
  %4 = call ptr @pthread_getspecific(i32 noundef %3) #8
  store ptr %4, ptr %1, align 8, !tbaa !10
  %5 = load ptr, ptr %1, align 8, !tbaa !10
  %6 = icmp ne ptr %5, null
  br i1 %6, label %7, label %19

7:                                                ; preds = %0
  %8 = load ptr, ptr %1, align 8, !tbaa !10
  %9 = getelementptr inbounds nuw %struct.nomem_handler, ptr %8, i32 0, i32 0
  %10 = load ptr, ptr %9, align 8, !tbaa !14
  %11 = icmp ne ptr %10, null
  br i1 %11, label %12, label %19

12:                                               ; preds = %7
  %13 = load ptr, ptr %1, align 8, !tbaa !10
  %14 = getelementptr inbounds nuw %struct.nomem_handler, ptr %13, i32 0, i32 0
  %15 = load ptr, ptr %14, align 8, !tbaa !14
  %16 = load ptr, ptr %1, align 8, !tbaa !10
  %17 = getelementptr inbounds nuw %struct.nomem_handler, ptr %16, i32 0, i32 1
  %18 = load ptr, ptr %17, align 8, !tbaa !16
  call void %15(ptr noundef %18)
  br label %19

19:                                               ; preds = %12, %7, %0
  %20 = load ptr, ptr @stderr, align 8, !tbaa !12
  %21 = call i32 (ptr, ptr, ...) @fprintf(ptr noundef %20, ptr noundef @.str) #8
  call void @abort() #9
  unreachable
}


!llvm.module.flags = !{!0, !1, !2, !3}

!0 = !{i32 1, !"wchar_size", i32 4}
!1 = !{i32 8, !"PIC Level", i32 2}
!2 = !{i32 7, !"PIE Level", i32 2}
!3 = !{i32 7, !"uwtable", i32 2}
!4 = !{!5, !5, i64 0}
!5 = !{!"any pointer", !6, i64 0}
!6 = !{!"omnipotent char", !7, i64 0}
!7 = !{!"Simple C/C++ TBAA"}
!8 = !{!9, !9, i64 0}
!9 = !{!"int", !6, i64 0}
!10 = !{!11, !11, i64 0}
!11 = !{!"p1 _ZTS13nomem_handler", !5, i64 0}
!12 = !{!13, !13, i64 0}
!13 = !{!"p1 _ZTS8_IO_FILE", !5, i64 0}
!14 = !{!15, !5, i64 0}
!15 = !{!"nomem_handler", !5, i64 0, !5, i64 8}
!16 = !{!15, !5, i64 8}
!17 = !{!18, !18, i64 0}
!18 = !{!"long", !6, i64 0}
!19 = !{!20, !20, i64 0}
!20 = !{!"p1 omnipotent char", !5, i64 0}
